target datalayout = "e-m:e-p270:32:32-p271:32:32-p272:64:64-i64:64-i128:128-f80:128-n8:16:32:64-S128"
target triple = "x86_64-pc-linux-gnu"

; Function Attrs: nounwind uwtable
define internal ptr @quote_makefile(ptr noundef %0) #0 {
  %2 = alloca ptr, align 8
  %3 = alloca ptr, align 8
  %4 = alloca i32, align 4
  %5 = alloca i32, align 4
  %6 = alloca i32, align 4
  %7 = alloca i32, align 4
  store ptr %0, ptr %2, align 8, !tbaa !7
  call void @llvm.lifetime.start.p0(i64 8, ptr %3) #11
  %8 = load ptr, ptr %2, align 8, !tbaa !7
  %9 = call i64 @strlen(ptr noundef %8) #13
  %10 = mul i64 %9, 2
  %11 = add i64 %10, 1
  %12 = call noalias ptr @calloc(i64 noundef 1, i64 noundef %11) #16
  store ptr %12, ptr %3, align 8, !tbaa !7
  call void @llvm.lifetime.start.p0(i64 4, ptr %4) #11
  store i32 0, ptr %4, align 4, !tbaa !12
  call void @llvm.lifetime.start.p0(i64 4, ptr %5) #11
  store i32 0, ptr %5, align 4, !tbaa !12
  br label %13

13:                                               ; preds = %104, %1
  %14 = load ptr, ptr %2, align 8, !tbaa !7
  %15 = load i32, ptr %4, align 4, !tbaa !12
  %16 = sext i32 %15 to i64
  %17 = getelementptr inbounds i8, ptr %14, i64 %16
  %18 = load i8, ptr %17, align 1, !tbaa !28
  %19 = icmp ne i8 %18, 0
  br i1 %19, label %21, label %20

20:                                               ; preds = %13
  store i32 2, ptr %6, align 4
  call void @llvm.lifetime.end.p0(i64 4, ptr %5) #11
  call void @llvm.lifetime.end.p0(i64 4, ptr %4) #11
  br label %107

21:                                               ; preds = %13
  %22 = load ptr, ptr %2, align 8, !tbaa !7
  %23 = load i32, ptr %4, align 4, !tbaa !12
  %24 = sext i32 %23 to i64
  %25 = getelementptr inbounds i8, ptr %22, i64 %24
  %26 = load i8, ptr %25, align 1, !tbaa !28
  %27 = sext i8 %26 to i32
  switch i32 %27, label %92 [
    i32 36, label %28
    i32 35, label %39
    i32 32, label %50
    i32 9, label %50
  ]

28:                                               ; preds = %21
  %29 = load ptr, ptr %3, align 8, !tbaa !7
  %30 = load i32, ptr %5, align 4, !tbaa !12
  %31 = add nsw i32 %30, 1
  store i32 %31, ptr %5, align 4, !tbaa !12
  %32 = sext i32 %30 to i64
  %33 = getelementptr inbounds i8, ptr %29, i64 %32
  store i8 36, ptr %33, align 1, !tbaa !28
  %34 = load ptr, ptr %3, align 8, !tbaa !7
  %35 = load i32, ptr %5, align 4, !tbaa !12
  %36 = add nsw i32 %35, 1
  store i32 %36, ptr %5, align 4, !tbaa !12
  %37 = sext i32 %35 to i64
  %38 = getelementptr inbounds i8, ptr %34, i64 %37
  store i8 36, ptr %38, align 1, !tbaa !28
  br label %103

39:                                               ; preds = %21
  %40 = load ptr, ptr %3, align 8, !tbaa !7
  %41 = load i32, ptr %5, align 4, !tbaa !12
  %42 = add nsw i32 %41, 1
  store i32 %42, ptr %5, align 4, !tbaa !12
  %43 = sext i32 %41 to i64
  %44 = getelementptr inbounds i8, ptr %40, i64 %43
  store i8 92, ptr %44, align 1, !tbaa !28
  %45 = load ptr, ptr %3, align 8, !tbaa !7
  %46 = load i32, ptr %5, align 4, !tbaa !12
  %47 = add nsw i32 %46, 1
  store i32 %47, ptr %5, align 4, !tbaa !12
  %48 = sext i32 %46 to i64
  %49 = getelementptr inbounds i8, ptr %45, i64 %48
  store i8 35, ptr %49, align 1, !tbaa !28
  br label %103

50:                                               ; preds = %21, %21
  call void @llvm.lifetime.start.p0(i64 4, ptr %7) #11
  %51 = load i32, ptr %4, align 4, !tbaa !12
  %52 = sub nsw i32 %51, 1
  store i32 %52, ptr %7, align 4, !tbaa !12
  br label %53

53:                                               ; preds = %73, %50
  %54 = load i32, ptr %7, align 4, !tbaa !12
  %55 = icmp sge i32 %54, 0
  br i1 %55, label %56, label %64

56:                                               ; preds = %53
  %57 = load ptr, ptr %2, align 8, !tbaa !7
  %58 = load i32, ptr %7, align 4, !tbaa !12
  %59 = sext i32 %58 to i64
  %60 = getelementptr inbounds i8, ptr %57, i64 %59
  %61 = load i8, ptr %60, align 1, !tbaa !28
  %62 = sext i8 %61 to i32
  %63 = icmp eq i32 %62, 92
  br label %64

64:                                               ; preds = %56, %53
  %65 = phi i1 [ false, %53 ], [ %63, %56 ]
  br i1 %65, label %67, label %66

66:                                               ; preds = %64
  store i32 6, ptr %6, align 4
  call void @llvm.lifetime.end.p0(i64 4, ptr %7) #11
  br label %76

67:                                               ; preds = %64
  %68 = load ptr, ptr %3, align 8, !tbaa !7
  %69 = load i32, ptr %5, align 4, !tbaa !12
  %70 = add nsw i32 %69, 1
  store i32 %70, ptr %5, align 4, !tbaa !12
  %71 = sext i32 %69 to i64
  %72 = getelementptr inbounds i8, ptr %68, i64 %71
  store i8 92, ptr %72, align 1, !tbaa !28
  br label %73

73:                                               ; preds = %67
  %74 = load i32, ptr %7, align 4, !tbaa !12
  %75 = add nsw i32 %74, -1
  store i32 %75, ptr %7, align 4, !tbaa !12
  br label %53, !llvm.loop !45

76:                                               ; preds = %66
  %77 = load ptr, ptr %3, align 8, !tbaa !7
  %78 = load i32, ptr %5, align 4, !tbaa !12
  %79 = add nsw i32 %78, 1
  store i32 %79, ptr %5, align 4, !tbaa !12
  %80 = sext i32 %78 to i64
  %81 = getelementptr inbounds i8, ptr %77, i64 %80
  store i8 92, ptr %81, align 1, !tbaa !28
  %82 = load ptr, ptr %2, align 8, !tbaa !7
  %83 = load i32, ptr %4, align 4, !tbaa !12
  %84 = sext i32 %83 to i64
  %85 = getelementptr inbounds i8, ptr %82, i64 %84
  %86 = load i8, ptr %85, align 1, !tbaa !28
  %87 = load ptr, ptr %3, align 8, !tbaa !7
  %88 = load i32, ptr %5, align 4, !tbaa !12
  %89 = add nsw i32 %88, 1
  store i32 %89, ptr %5, align 4, !tbaa !12
  %90 = sext i32 %88 to i64
  %91 = getelementptr inbounds i8, ptr %87, i64 %90
  store i8 %86, ptr %91, align 1, !tbaa !28
  br label %103

92:                                               ; preds = %21
  %93 = load ptr, ptr %2, align 8, !tbaa !7
  %94 = load i32, ptr %4, align 4, !tbaa !12
  %95 = sext i32 %94 to i64
  %96 = getelementptr inbounds i8, ptr %93, i64 %95
  %97 = load i8, ptr %96, align 1, !tbaa !28
  %98 = load ptr, ptr %3, align 8, !tbaa !7
  %99 = load i32, ptr %5, align 4, !tbaa !12
  %100 = add nsw i32 %99, 1
  store i32 %100, ptr %5, align 4, !tbaa !12
  %101 = sext i32 %99 to i64
  %102 = getelementptr inbounds i8, ptr %98, i64 %101
  store i8 %97, ptr %102, align 1, !tbaa !28
  br label %103

103:                                              ; preds = %92, %76, %39, %28
  br label %104

104:                                              ; preds = %103
  %105 = load i32, ptr %4, align 4, !tbaa !12
  %106 = add nsw i32 %105, 1
  store i32 %106, ptr %4, align 4, !tbaa !12
  br label %13, !llvm.loop !46

107:                                              ; preds = %20
  %108 = load ptr, ptr %3, align 8, !tbaa !7
  store i32 1, ptr %6, align 4
  call void @llvm.lifetime.end.p0(i64 8, ptr %3) #11
  ret ptr %108
}