; Function Attrs: nofree nounwind memory(write, argmem: read, inaccessiblemem: readwrite) uwtable
define internal fastcc noalias noundef ptr @quote_makefile(ptr noundef readonly captures(none) %0) unnamed_addr #11 {
  %2 = tail call i64 @strlen(ptr noundef nonnull dereferenceable(1) %0) #19
  %3 = shl i64 %2, 1
  %4 = or disjoint i64 %3, 1
  %5 = tail call noalias ptr @calloc(i64 noundef 1, i64 noundef %4) #22
  br label %6

6:                                                ; preds = %39, %1
  %indvars.iv = phi i64 [ %indvars.iv.next, %39 ], [ 0, %1 ]
  %.031 = phi i32 [ %.2, %39 ], [ 0, %1 ]
  %7 = getelementptr inbounds nuw i8, ptr %0, i64 %indvars.iv
  %8 = load i8, ptr %7, align 1, !tbaa !36
  switch i8 %8, label %35 [
    i8 0, label %9
    i8 36, label %10
    i8 35, label %15
    i8 32, label %20
    i8 9, label %20
  ]

9:                                                ; preds = %6
  ret ptr %5

10:                                               ; preds = %6
  %11 = sext i32 %.031 to i64
  %12 = getelementptr inbounds i8, ptr %5, i64 %11
  store i8 36, ptr %12, align 1, !tbaa !36
  %13 = add nsw i32 %.031, 2
  %14 = getelementptr i8, ptr %12, i64 1
  store i8 36, ptr %14, align 1, !tbaa !36
  br label %39

15:                                               ; preds = %6
  %16 = sext i32 %.031 to i64
  %17 = getelementptr inbounds i8, ptr %5, i64 %16
  store i8 92, ptr %17, align 1, !tbaa !36
  %18 = add nsw i32 %.031, 2
  %19 = getelementptr i8, ptr %17, i64 1
  store i8 35, ptr %19, align 1, !tbaa !36
  br label %39

20:                                               ; preds = %6, %6
  %.not = icmp eq i64 %indvars.iv, 0
  br i1 %.not, label %.critedge, label %.lr.ph.preheader

.lr.ph.preheader:                                 ; preds = %20
  %21 = sext i32 %.031 to i64
  %22 = trunc nuw nsw i64 %indvars.iv to i32
  %23 = add i32 %.031, %22
  br label %.lr.ph

.lr.ph:                                           ; preds = %.lr.ph.preheader, %32
  %indvars.iv41 = phi i64 [ %21, %.lr.ph.preheader ], [ %indvars.iv.next42, %32 ]
  %indvars.iv39 = phi i64 [ %indvars.iv, %.lr.ph.preheader ], [ %indvars.iv.next40, %32 ]
  %indvars.iv.next40 = add nsw i64 %indvars.iv39, -1
  %24 = getelementptr inbounds nuw i8, ptr %0, i64 %indvars.iv.next40
  %25 = load i8, ptr %24, align 1, !tbaa !36
  %26 = icmp eq i8 %25, 92
  br i1 %26, label %32, label %.critedge.loopexit.split.loop.exit47

.critedge.loopexit.split.loop.exit47:             ; preds = %.lr.ph
  %27 = trunc nsw i64 %indvars.iv41 to i32
  br label %.critedge

.critedge:                                        ; preds = %32, %.critedge.loopexit.split.loop.exit47, %20
  %.1.lcssa = phi i32 [ %.031, %20 ], [ %27, %.critedge.loopexit.split.loop.exit47 ], [ %23, %32 ]
  %28 = sext i32 %.1.lcssa to i64
  %29 = getelementptr inbounds i8, ptr %5, i64 %28
  store i8 92, ptr %29, align 1, !tbaa !36
  %30 = add nsw i32 %.1.lcssa, 2
  %31 = getelementptr i8, ptr %29, i64 1
  store i8 %8, ptr %31, align 1, !tbaa !36
  br label %39

32:                                               ; preds = %.lr.ph
  %indvars.iv.next42 = add nsw i64 %indvars.iv41, 1
  %33 = getelementptr inbounds i8, ptr %5, i64 %indvars.iv41
  store i8 92, ptr %33, align 1, !tbaa !36
  %34 = icmp sgt i64 %indvars.iv39, 1
  br i1 %34, label %.lr.ph, label %.critedge, !llvm.loop !62

35:                                               ; preds = %6
  %36 = add nsw i32 %.031, 1
  %37 = sext i32 %.031 to i64
  %38 = getelementptr inbounds i8, ptr %5, i64 %37
  store i8 %8, ptr %38, align 1, !tbaa !36
  br label %39

39:                                               ; preds = %10, %15, %.critedge, %35
  %.2 = phi i32 [ %36, %35 ], [ %30, %.critedge ], [ %18, %15 ], [ %13, %10 ]
  %indvars.iv.next = add nuw nsw i64 %indvars.iv, 1
  br label %6, !llvm.loop !63
}